target datalayout = "e-m:e-p270:32:32-p271:32:32-p272:64:64-i64:64-i128:128-f80:128-n8:16:32:64-S128"
target triple = "x86_64-pc-linux-gnu"

%"struct.std::atomic.91" = type { %"struct.std::__atomic_base.92" }
%"struct.std::__atomic_base.92" = type { ptr }
%"class.std::function" = type { %"class.std::_Function_base", ptr }
%"class.std::_Function_base" = type { %"union.std::_Any_data", ptr }
%"union.std::_Any_data" = type { %"union.std::_Nocopy_types" }
%"union.std::_Nocopy_types" = type { { i64, i64 } }
%"class.std::function.0" = type { %"class.std::_Function_base", ptr }
%"class.folly::detail::TypeDescriptor" = type { %"struct.std::type_index", %"struct.std::type_index" }
%"struct.std::type_index" = type { ptr }
%"struct.folly::detail::SingletonHolder" = type { %"class.folly::detail::SingletonHolderBase", ptr, %"class.std::mutex", %"struct.std::atomic", %"struct.std::atomic.4", %"class.folly::ReadMostlyMainPtr", %"class.folly::ReadMostlySharedPtr", %"class.folly::CoreCachedSharedPtr", %"class.std::weak_ptr", %"class.folly::ReadMostlyWeakPtr", %"class.folly::CoreCachedWeakPtr", %"class.std::shared_ptr.6", ptr, %"class.std::function.0", %"class.std::function", %"class.std::shared_ptr.9" }
%"class.folly::detail::SingletonHolderBase" = type { ptr, %"class.folly::detail::TypeDescriptor" }
%"class.std::mutex" = type { %"class.std::__mutex_base" }
%"class.std::__mutex_base" = type { %union.pthread_mutex_t }
%union.pthread_mutex_t = type { %struct.__pthread_mutex_s }
%struct.__pthread_mutex_s = type { i32, i32, i32, i32, i32, i16, i16, %struct.__pthread_internal_list }
%struct.__pthread_internal_list = type { ptr, ptr }
%"struct.std::atomic" = type { i32 }
%"struct.std::atomic.4" = type { %"class.std::thread::id" }
%"class.std::thread::id" = type { i64 }
%"class.folly::ReadMostlyMainPtr" = type { ptr, ptr }
%"class.folly::ReadMostlySharedPtr" = type { ptr, ptr }
%"class.folly::CoreCachedSharedPtr" = type { %"struct.std::array" }
%"struct.std::array" = type { [64 x %"class.std::shared_ptr"] }
%"class.std::shared_ptr" = type { %"class.std::__shared_ptr" }
%"class.std::__shared_ptr" = type { ptr, %"class.std::__shared_count" }
%"class.std::__shared_count" = type { ptr }
%"class.std::weak_ptr" = type { %"class.std::__weak_ptr" }
%"class.std::__weak_ptr" = type { ptr, %"class.std::__weak_count" }
%"class.std::__weak_count" = type { ptr }
%"class.folly::ReadMostlyWeakPtr" = type { ptr, ptr }
%"class.folly::CoreCachedWeakPtr" = type { %"struct.std::array.5" }
%"struct.std::array.5" = type { [64 x %"class.std::weak_ptr"] }
%"class.std::shared_ptr.6" = type { %"class.std::__shared_ptr.7" }
%"class.std::__shared_ptr.7" = type { ptr, %"class.std::__shared_count" }
%"class.std::shared_ptr.9" = type { %"class.std::__shared_ptr.10" }
%"class.std::__shared_ptr.10" = type { ptr, %"class.std::__shared_count" }
%"struct.folly::detail::StaticSingletonManagerWithRtti::Arg" = type { %"struct.std::atomic.91", ptr, ptr, ptr }

; Function Attrs: noinline noreturn nounwind uwtable
define linkonce_odr hidden void @__clang_call_terminate(ptr noundef %0) #5 comdat {
  %2 = call ptr @__cxa_begin_catch(ptr %0) #25
  call void @_ZSt9terminatev() #30
  unreachable
}

; Function Attrs: mustprogress nounwind uwtable
define linkonce_odr noundef i32 @_ZStanSt12memory_orderSt23__memory_order_modifier(i32 noundef %0, i32 noundef %1) #1 comdat {
  %3 = alloca i32, align 4
  %4 = alloca i32, align 4
  store i32 %0, ptr %3, align 4, !tbaa !43
  store i32 %1, ptr %4, align 4, !tbaa !47
  %5 = load i32, ptr %3, align 4, !tbaa !43
  %6 = load i32, ptr %4, align 4, !tbaa !47
  %7 = and i32 %5, %6
  ret i32 %7
}

; Function Attrs: alwaysinline mustprogress nounwind uwtable
define linkonce_odr noundef ptr @_ZNKSt13__atomic_baseIPvE4loadESt12memory_order(ptr noundef nonnull align 8 dereferenceable(8) %0, i32 noundef %1) #14 comdat align 2 personality ptr @__gxx_personality_v0 {
  %3 = alloca ptr, align 8
  %4 = alloca i32, align 4
  %5 = alloca i32, align 4
  %6 = alloca ptr, align 8
  store ptr %0, ptr %3, align 8, !tbaa !45
  store i32 %1, ptr %4, align 4, !tbaa !43
  %7 = load ptr, ptr %3, align 8
  call void @llvm.lifetime.start.p0(i64 4, ptr %5) #25
  %8 = load i32, ptr %4, align 4, !tbaa !43
  %9 = invoke noundef i32 @_ZStanSt12memory_orderSt23__memory_order_modifier(i32 noundef %8, i32 noundef 65535)
          to label %10 unwind label %27

10:                                               ; preds = %2
  store i32 %9, ptr %5, align 4, !tbaa !43
  br label %11

11:                                               ; preds = %10
  br label %12

12:                                               ; preds = %11
  br label %13

13:                                               ; preds = %12
  br label %14

14:                                               ; preds = %13
  br label %15

15:                                               ; preds = %14
  br label %16

16:                                               ; preds = %15
  %17 = getelementptr inbounds nuw %"struct.std::__atomic_base.92", ptr %7, i32 0, i32 0
  %18 = load i32, ptr %4, align 4, !tbaa !43
  switch i32 %18, label %19 [
    i32 1, label %21
    i32 2, label %21
    i32 5, label %23
  ]

19:                                               ; preds = %16
  %20 = load atomic i64, ptr %17 monotonic, align 8
  store i64 %20, ptr %6, align 8
  br label %25

21:                                               ; preds = %16, %16
  %22 = load atomic i64, ptr %17 acquire, align 8
  store i64 %22, ptr %6, align 8
  br label %25

23:                                               ; preds = %16
  %24 = load atomic i64, ptr %17 seq_cst, align 8
  store i64 %24, ptr %6, align 8
  br label %25

25:                                               ; preds = %23, %21, %19
  %26 = load ptr, ptr %6, align 8, !tbaa !25
  call void @llvm.lifetime.end.p0(i64 4, ptr %5) #25
  ret ptr %26

27:                                               ; preds = %2
  %28 = landingpad { ptr, i32 }
          catch ptr null
  %29 = extractvalue { ptr, i32 } %28, 0
  call void @__clang_call_terminate(ptr %29) #30
  unreachable
}

; Function Attrs: mustprogress nounwind uwtable
define linkonce_odr noundef ptr @_ZNKSt6atomicIPvE4loadESt12memory_order(ptr noundef nonnull align 8 dereferenceable(8) %0, i32 noundef %1) #1 comdat align 2 {
  %3 = alloca ptr, align 8
  %4 = alloca i32, align 4
  store ptr %0, ptr %3, align 8, !tbaa !41
  store i32 %1, ptr %4, align 4, !tbaa !43
  %5 = load ptr, ptr %3, align 8
  %6 = getelementptr inbounds nuw %"struct.std::atomic.91", ptr %5, i32 0, i32 0
  %7 = load i32, ptr %4, align 4, !tbaa !43
  %8 = call noundef ptr @_ZNKSt13__atomic_baseIPvE4loadESt12memory_order(ptr noundef nonnull align 8 dereferenceable(8) %6, i32 noundef %7) #25
  ret ptr %8
}

; Function Attrs: alwaysinline mustprogress uwtable
define internal noundef nonnull align 8 dereferenceable(2304) ptr @_ZN5folly6detail30StaticSingletonManagerWithRtti6createINS0_15SingletonHolderINS_17ShutdownSocketSetEE4ImplINS_12_GLOBAL__N_110PrivateTagENS0_10DefaultTagEEEJELb0EEERT_RNS1_9ArgCreateIXT1_EEE(ptr noundef nonnull align 8 dereferenceable(32) %0) #13 align 2 {
  %2 = alloca ptr, align 8
  %3 = alloca ptr, align 8
  %4 = alloca ptr, align 8
  store ptr %0, ptr %2, align 8, !tbaa !39
  call void @llvm.lifetime.start.p0(i64 8, ptr %3) #25
  %5 = load ptr, ptr %2, align 8, !tbaa !39
  %6 = getelementptr inbounds nuw %"struct.folly::detail::StaticSingletonManagerWithRtti::Arg", ptr %5, i32 0, i32 0
  %7 = call noundef ptr @_ZNKSt6atomicIPvE4loadESt12memory_order(ptr noundef nonnull align 8 dereferenceable(8) %6, i32 noundef 2) #25
  store ptr %7, ptr %3, align 8, !tbaa !25
  call void @llvm.lifetime.start.p0(i64 8, ptr %4) #25
  %8 = load ptr, ptr %3, align 8, !tbaa !25
  %9 = icmp ne ptr %8, null
  %10 = xor i1 %9, true
  %11 = xor i1 %10, true
  %12 = zext i1 %11 to i64
  %13 = call i64 @llvm.expect.i64(i64 %12, i64 1)
  %14 = icmp ne i64 %13, 0
  br i1 %14, label %15, label %17

15:                                               ; preds = %1
  %16 = load ptr, ptr %3, align 8, !tbaa !25
  br label %20

17:                                               ; preds = %1
  %18 = load ptr, ptr %2, align 8, !tbaa !39
  %19 = call noundef ptr @_ZN5folly6detail30StaticSingletonManagerWithRtti7create_ILb0EEEPvRNS1_3ArgE(ptr noundef nonnull align 8 dereferenceable(32) %18)
  br label %20

20:                                               ; preds = %17, %15
  %21 = phi ptr [ %16, %15 ], [ %19, %17 ]
  store ptr %21, ptr %4, align 8, !tbaa !25
  %22 = load ptr, ptr %4, align 8, !tbaa !25
  call void @llvm.lifetime.end.p0(i64 8, ptr %4) #25
  call void @llvm.lifetime.end.p0(i64 8, ptr %3) #25
  ret ptr %22
}

; Function Attrs: alwaysinline mustprogress nounwind uwtable
define internal noundef nonnull align 8 dereferenceable(32) ptr @_ZN5folly6detail30StaticSingletonManagerWithRtti6globalINS0_15SingletonHolderINS_17ShutdownSocketSetEE4ImplINS_12_GLOBAL__N_110PrivateTagENS0_10DefaultTagEEEvNS1_9ArgCreateILb0EEEEERT1_v() #14 align 2 {
  ret ptr @_ZZN5folly6detail30StaticSingletonManagerWithRtti6globalINS0_15SingletonHolderINS_17ShutdownSocketSetEE4ImplINS_12_GLOBAL__N_110PrivateTagENS0_10DefaultTagEEEvNS1_9ArgCreateILb0EEEEERT1_vE3arg
}

; Function Attrs: mustprogress uwtable
define linkonce_odr noundef nonnull align 8 dereferenceable(16) ptr @_ZN5folly19ReadMostlySharedPtrINS_17ShutdownSocketSetENS_10TLRefCountEEaSIS1_vEERS3_RKNS_17ReadMostlyWeakPtrIT_S2_EE(ptr noundef nonnull align 8 dereferenceable(16) %0, ptr noundef nonnull align 8 dereferenceable(16) %1) #2 comdat align 2 {
  %3 = alloca ptr, align 8
  %4 = alloca ptr, align 8
  store ptr %0, ptr %3, align 8, !tbaa !168
  store ptr %1, ptr %4, align 8, !tbaa !176
  %5 = load ptr, ptr %3, align 8
  %6 = load ptr, ptr %4, align 8, !tbaa !176
  %7 = getelementptr inbounds nuw %"class.folly::ReadMostlyWeakPtr", ptr %6, i32 0, i32 0
  %8 = load ptr, ptr %7, align 8, !tbaa !178
  %9 = load ptr, ptr %4, align 8, !tbaa !176
  %10 = getelementptr inbounds nuw %"class.folly::ReadMostlyWeakPtr", ptr %9, i32 0, i32 1
  %11 = load ptr, ptr %10, align 8, !tbaa !179
  call void @_ZN5folly19ReadMostlySharedPtrINS_17ShutdownSocketSetENS_10TLRefCountEE5resetEPNS_6detail23ReadMostlySharedPtrCoreIS2_EEPS1_(ptr noundef nonnull align 8 dereferenceable(16) %5, ptr noundef %8, ptr noundef %11)
  ret ptr %5
}

; Function Attrs: alwaysinline mustprogress uwtable
define internal noundef nonnull align 8 dereferenceable(2304) ptr @_ZN5folly6detail30StaticSingletonManagerWithRtti6createINS0_15SingletonHolderINS_17ShutdownSocketSetEE4ImplINS_12_GLOBAL__N_110PrivateTagENS0_10DefaultTagEEEvEERT_v() #13 align 2 {
  %1 = call noundef nonnull align 8 dereferenceable(32) ptr @_ZN5folly6detail30StaticSingletonManagerWithRtti6globalINS0_15SingletonHolderINS_17ShutdownSocketSetEE4ImplINS_12_GLOBAL__N_110PrivateTagENS0_10DefaultTagEEEvNS1_9ArgCreateILb0EEEEERT1_v()
  %2 = call noundef nonnull align 8 dereferenceable(2304) ptr @_ZN5folly6detail30StaticSingletonManagerWithRtti6createINS0_15SingletonHolderINS_17ShutdownSocketSetEE4ImplINS_12_GLOBAL__N_110PrivateTagENS0_10DefaultTagEEEJELb0EEERT_RNS1_9ArgCreateIXT1_EEE(ptr noundef nonnull align 8 dereferenceable(32) %1)
  ret ptr %2
}

; Function Attrs: mustprogress uwtable
define linkonce_odr void @_ZN5folly19ReadMostlySharedPtrINS_17ShutdownSocketSetENS_10TLRefCountEEC2IS1_vEERKNS_17ReadMostlyWeakPtrIT_S2_EE(ptr noundef nonnull align 8 dereferenceable(16) %0, ptr noundef nonnull align 8 dereferenceable(16) %1) unnamed_addr #2 comdat align 2 {
  %3 = alloca ptr, align 8
  %4 = alloca ptr, align 8
  store ptr %0, ptr %3, align 8, !tbaa !168
  store ptr %1, ptr %4, align 8, !tbaa !176
  %5 = load ptr, ptr %3, align 8
  %6 = getelementptr inbounds nuw %"class.folly::ReadMostlySharedPtr", ptr %5, i32 0, i32 0
  store ptr null, ptr %6, align 8, !tbaa !170
  %7 = getelementptr inbounds nuw %"class.folly::ReadMostlySharedPtr", ptr %5, i32 0, i32 1
  store ptr null, ptr %7, align 8, !tbaa !171
  %8 = load ptr, ptr %4, align 8, !tbaa !176
  %9 = call noundef nonnull align 8 dereferenceable(16) ptr @_ZN5folly19ReadMostlySharedPtrINS_17ShutdownSocketSetENS_10TLRefCountEEaSIS1_vEERS3_RKNS_17ReadMostlyWeakPtrIT_S2_EE(ptr noundef nonnull align 8 dereferenceable(16) %5, ptr noundef nonnull align 8 dereferenceable(16) %8)
  ret void
}

; Function Attrs: alwaysinline mustprogress uwtable
define internal noundef nonnull align 8 dereferenceable(2304) ptr @_ZN5folly6detail12createGlobalINS0_15SingletonHolderINS_17ShutdownSocketSetEE4ImplINS_12_GLOBAL__N_110PrivateTagENS0_10DefaultTagEEEvEERT_v() #13 {
  %1 = call noundef nonnull align 8 dereferenceable(2304) ptr @_ZN5folly6detail30StaticSingletonManagerWithRtti6createINS0_15SingletonHolderINS_17ShutdownSocketSetEE4ImplINS_12_GLOBAL__N_110PrivateTagENS0_10DefaultTagEEEvEERT_v()
  ret ptr %1
}

; Function Attrs: mustprogress uwtable
define linkonce_odr void @_ZN5folly17ReadMostlyWeakPtrINS_17ShutdownSocketSetENS_10TLRefCountEE4lockEv(ptr dead_on_unwind noalias writable sret(%"class.folly::ReadMostlySharedPtr") align 8 %0, ptr noundef nonnull align 8 dereferenceable(16) %1) #2 comdat align 2 {
  %3 = alloca ptr, align 8
  %4 = alloca ptr, align 8
  store ptr %0, ptr %3, align 8
  store ptr %1, ptr %4, align 8, !tbaa !176
  %5 = load ptr, ptr %4, align 8
  call void @_ZN5folly19ReadMostlySharedPtrINS_17ShutdownSocketSetENS_10TLRefCountEEC2IS1_vEERKNS_17ReadMostlyWeakPtrIT_S2_EE(ptr noundef nonnull align 8 dereferenceable(16) %0, ptr noundef nonnull align 8 dereferenceable(16) %5)
  ret void
}

; Function Attrs: mustprogress nounwind uwtable
define linkonce_odr noundef i32 @_ZNKSt6atomicIN5folly6detail15SingletonHolderINS0_17ShutdownSocketSetEE20SingletonHolderStateEE4loadESt12memory_order(ptr noundef nonnull align 4 dereferenceable(4) %0, i32 noundef %1) #1 comdat align 2 {
  %3 = alloca ptr, align 8
  %4 = alloca i32, align 4
  %5 = alloca [4 x i8], align 4
  %6 = alloca ptr, align 8
  store ptr %0, ptr %3, align 8, !tbaa !159
  store i32 %1, ptr %4, align 4, !tbaa !43
  %7 = load ptr, ptr %3, align 8
  call void @llvm.lifetime.start.p0(i64 4, ptr %5) #25
  call void @llvm.lifetime.start.p0(i64 8, ptr %6) #25
  %8 = getelementptr inbounds [4 x i8], ptr %5, i64 0, i64 0
  store ptr %8, ptr %6, align 8, !tbaa !25
  %9 = getelementptr inbounds nuw %"struct.std::atomic", ptr %7, i32 0, i32 0
  %10 = load i32, ptr %4, align 4, !tbaa !43
  %11 = load ptr, ptr %6, align 8, !tbaa !25
  switch i32 %10, label %12 [
    i32 1, label %14
    i32 2, label %14
    i32 5, label %16
  ]

12:                                               ; preds = %2
  %13 = load atomic i32, ptr %9 monotonic, align 4
  store i32 %13, ptr %11, align 4
  br label %18

14:                                               ; preds = %2, %2
  %15 = load atomic i32, ptr %9 acquire, align 4
  store i32 %15, ptr %11, align 4
  br label %18

16:                                               ; preds = %2
  %17 = load atomic i32, ptr %9 seq_cst, align 4
  store i32 %17, ptr %11, align 4
  br label %18

18:                                               ; preds = %16, %14, %12
  %19 = load ptr, ptr %6, align 8, !tbaa !25
  %20 = load i32, ptr %19, align 4, !tbaa !141
  call void @llvm.lifetime.end.p0(i64 8, ptr %6) #25
  call void @llvm.lifetime.end.p0(i64 4, ptr %5) #25
  ret i32 %20
}

; Function Attrs: inlinehint mustprogress uwtable
define internal noundef nonnull align 8 dereferenceable(2304) ptr @_ZN5folly6detail15SingletonHolderINS_17ShutdownSocketSetEE9singletonINS_12_GLOBAL__N_110PrivateTagENS0_10DefaultTagEEERS3_v() #6 align 2 {
  %1 = call noundef nonnull align 8 dereferenceable(2304) ptr @_ZN5folly6detail12createGlobalINS0_15SingletonHolderINS_17ShutdownSocketSetEE4ImplINS_12_GLOBAL__N_110PrivateTagENS0_10DefaultTagEEEvEERT_v()
  ret ptr %1
}

; Function Attrs: inlinehint mustprogress uwtable
define linkonce_odr void @_ZN5folly6detail15SingletonHolderINS_17ShutdownSocketSetEE12try_get_fastEv(ptr dead_on_unwind noalias writable sret(%"class.folly::ReadMostlySharedPtr") align 8 %0, ptr noundef nonnull align 8 dereferenceable(2304) %1) #6 comdat align 2 {
  %3 = alloca ptr, align 8
  %4 = alloca ptr, align 8
  store ptr %0, ptr %3, align 8
  store ptr %1, ptr %4, align 8, !tbaa !37
  %5 = load ptr, ptr %4, align 8
  %6 = getelementptr inbounds nuw %"struct.folly::detail::SingletonHolder", ptr %5, i32 0, i32 3
  %7 = call noundef i32 @_ZNKSt6atomicIN5folly6detail15SingletonHolderINS0_17ShutdownSocketSetEE20SingletonHolderStateEE4loadESt12memory_order(ptr noundef nonnull align 4 dereferenceable(4) %6, i32 noundef 2) #25
  %8 = icmp ne i32 %7, 2
  %9 = zext i1 %8 to i64
  %10 = call i64 @llvm.expect.i64(i64 %9, i64 0)
  %11 = icmp ne i64 %10, 0
  br i1 %11, label %12, label %16

12:                                               ; preds = %2
  %13 = load ptr, ptr %5, align 8, !tbaa !51
  %14 = getelementptr inbounds ptr, ptr %13, i64 3
  %15 = load ptr, ptr %14, align 8
  call void %15(ptr noundef nonnull align 8 dereferenceable(2304) %5)
  br label %16

16:                                               ; preds = %12, %2
  %17 = getelementptr inbounds nuw %"struct.folly::detail::SingletonHolder", ptr %5, i32 0, i32 9
  call void @_ZN5folly17ReadMostlyWeakPtrINS_17ShutdownSocketSetENS_10TLRefCountEE4lockEv(ptr dead_on_unwind writable sret(%"class.folly::ReadMostlySharedPtr") align 8 %0, ptr noundef nonnull align 8 dereferenceable(16) %17)
  ret void
}

; Function Attrs: inlinehint mustprogress uwtable
define internal noundef nonnull align 8 dereferenceable(2304) ptr @_ZN5folly9SingletonINS_17ShutdownSocketSetENS_12_GLOBAL__N_110PrivateTagENS_6detail10DefaultTagEE8getEntryEv() #6 align 2 {
  %1 = call noundef nonnull align 8 dereferenceable(2304) ptr @_ZN5folly6detail15SingletonHolderINS_17ShutdownSocketSetEE9singletonINS_12_GLOBAL__N_110PrivateTagENS0_10DefaultTagEEERS3_v()
  ret ptr %1
}

; Function Attrs: mustprogress uwtable
define internal void @_ZN5folly9SingletonINS_17ShutdownSocketSetENS_12_GLOBAL__N_110PrivateTagENS_6detail10DefaultTagEE12try_get_fastEv(ptr dead_on_unwind noalias writable sret(%"class.folly::ReadMostlySharedPtr") align 8 %0) #2 align 2 {
  %2 = alloca ptr, align 8
  store ptr %0, ptr %2, align 8
  %3 = call noundef nonnull align 8 dereferenceable(2304) ptr @_ZN5folly9SingletonINS_17ShutdownSocketSetENS_12_GLOBAL__N_110PrivateTagENS_6detail10DefaultTagEE8getEntryEv()
  call void @_ZN5folly6detail15SingletonHolderINS_17ShutdownSocketSetEE12try_get_fastEv(ptr dead_on_unwind writable sret(%"class.folly::ReadMostlySharedPtr") align 8 %0, ptr noundef nonnull align 8 dereferenceable(2304) %3)
  ret void
}

; Function Attrs: mustprogress uwtable
define void @_ZN5folly27tryGetShutdownSocketSetFastEv(ptr dead_on_unwind noalias writable sret(%"class.folly::ReadMostlySharedPtr") align 8 %0) #2 {
  %2 = alloca ptr, align 8
  store ptr %0, ptr %2, align 8
  call void @_ZN5folly9SingletonINS_17ShutdownSocketSetENS_12_GLOBAL__N_110PrivateTagENS_6detail10DefaultTagEE12try_get_fastEv(ptr dead_on_unwind writable sret(%"class.folly::ReadMostlySharedPtr") align 8 %0)
  ret void
}