; Function Attrs: mustprogress uwtable
define void @_ZN5folly27tryGetShutdownSocketSetFastEv(ptr dead_on_unwind noalias writable sret(%"class.folly::ReadMostlySharedPtr") align 8 initializes((0, 16)) %0) local_unnamed_addr #2 personality ptr @__gxx_personality_v0 {
  tail call void @llvm.experimental.noalias.scope.decl(metadata !561)
  %2 = load atomic i64, ptr @_ZZN5folly6detail30StaticSingletonManagerWithRtti6globalINS0_15SingletonHolderINS_17ShutdownSocketSetEE4ImplINS_12_GLOBAL__N_110PrivateTagENS0_10DefaultTagEEEvNS1_9ArgCreateILb0EEEEERT1_vE3arg acquire, align 8, !noalias !561
  %.0.i.i.i.i.i = inttoptr i64 %2 to ptr
  %.not.i.i.i.i = icmp eq i64 %2, 0
  br i1 %.not.i.i.i.i, label %3, label %_ZN5folly9SingletonINS_17ShutdownSocketSetENS_12_GLOBAL__N_110PrivateTagENS_6detail10DefaultTagEE8getEntryEv.exit.i, !prof !24

3:                                                ; preds = %1
  %4 = tail call noundef ptr @_ZN5folly6detail30StaticSingletonManagerWithRtti7create_ILb0EEEPvRNS1_3ArgE(ptr noundef nonnull align 8 dereferenceable(32) @_ZZN5folly6detail30StaticSingletonManagerWithRtti6globalINS0_15SingletonHolderINS_17ShutdownSocketSetEE4ImplINS_12_GLOBAL__N_110PrivateTagENS0_10DefaultTagEEEvNS1_9ArgCreateILb0EEEEERT1_vE3arg), !noalias !561
  br label %_ZN5folly9SingletonINS_17ShutdownSocketSetENS_12_GLOBAL__N_110PrivateTagENS_6detail10DefaultTagEE8getEntryEv.exit.i

_ZN5folly9SingletonINS_17ShutdownSocketSetENS_12_GLOBAL__N_110PrivateTagENS_6detail10DefaultTagEE8getEntryEv.exit.i: ; preds = %3, %1
  %5 = phi ptr [ %4, %3 ], [ %.0.i.i.i.i.i, %1 ]
  tail call void @llvm.experimental.noalias.scope.decl(metadata !564)
  %6 = getelementptr inbounds nuw i8, ptr %5, i64 72
  %7 = load atomic i32, ptr %6 acquire, align 4, !noalias !567
  %.not.i.i = icmp eq i32 %7, 2
  br i1 %.not.i.i, label %_ZN5folly9SingletonINS_17ShutdownSocketSetENS_12_GLOBAL__N_110PrivateTagENS_6detail10DefaultTagEE12try_get_fastEv.exit, label %8, !prof !185

8:                                                ; preds = %_ZN5folly9SingletonINS_17ShutdownSocketSetENS_12_GLOBAL__N_110PrivateTagENS_6detail10DefaultTagEE8getEntryEv.exit.i
  %9 = load ptr, ptr %5, align 8, !tbaa !27, !noalias !567
  %10 = getelementptr inbounds nuw i8, ptr %9, i64 24
  %11 = load ptr, ptr %10, align 8, !noalias !567
  tail call void %11(ptr noundef nonnull align 8 dereferenceable(2304) %5), !noalias !567
  br label %_ZN5folly9SingletonINS_17ShutdownSocketSetENS_12_GLOBAL__N_110PrivateTagENS_6detail10DefaultTagEE12try_get_fastEv.exit

_ZN5folly9SingletonINS_17ShutdownSocketSetENS_12_GLOBAL__N_110PrivateTagENS_6detail10DefaultTagEE12try_get_fastEv.exit: ; preds = %_ZN5folly9SingletonINS_17ShutdownSocketSetENS_12_GLOBAL__N_110PrivateTagENS_6detail10DefaultTagEE8getEntryEv.exit.i, %8
  %12 = getelementptr inbounds nuw i8, ptr %5, i64 1160
  tail call void @llvm.experimental.noalias.scope.decl(metadata !568)
  tail call void @llvm.memset.p0.i64(ptr noundef nonnull align 8 dereferenceable(16) %0, i8 0, i64 16, i1 false), !alias.scope !571
  %13 = load ptr, ptr %12, align 8, !tbaa !39, !noalias !571
  %14 = getelementptr inbounds nuw i8, ptr %5, i64 1168
  %15 = load ptr, ptr %14, align 8, !tbaa !177, !noalias !571
  tail call void @_ZN5folly19ReadMostlySharedPtrINS_17ShutdownSocketSetENS_10TLRefCountEE5resetEPNS_6detail23ReadMostlySharedPtrCoreIS2_EEPS1_(ptr noundef nonnull align 8 dereferenceable(16) %0, ptr noundef %13, ptr noundef %15)
  ret void
}